; Function Attrs: mustprogress uwtable
define void @_ZNK32pxrInternal_v0_24__pxrReserved__32PcpErrorInconsistentPropertyType8ToStringB5cxx11Ev(ptr dead_on_unwind noalias writable sret(%"class.std::__cxx11::basic_string") align 8 %0, ptr noundef nonnull align 8 dereferenceable(192) %1) unnamed_addr #0 align 2 {
  %3 = getelementptr inbounds i8, ptr %1, i64 96
  %4 = tail call noundef nonnull align 8 dereferenceable(32) ptr @_ZNK32pxrInternal_v0_24__pxrReserved__7SdfPath9GetStringB5cxx11Ev(ptr noundef nonnull align 4 dereferenceable(8) %3)
  %5 = tail call noundef ptr @_ZNKSt7__cxx1112basic_stringIcSt11char_traitsIcESaIcEE5c_strEv(ptr noundef nonnull align 8 dereferenceable(32) %4) #19
  %6 = getelementptr inbounds nuw i8, ptr %1, i64 104
  %7 = tail call noundef ptr @_ZNKSt7__cxx1112basic_stringIcSt11char_traitsIcESaIcEE5c_strEv(ptr noundef nonnull align 8 dereferenceable(32) %6) #19
  %8 = getelementptr inbounds nuw i8, ptr %1, i64 136
  %9 = tail call noundef nonnull align 8 dereferenceable(32) ptr @_ZNK32pxrInternal_v0_24__pxrReserved__7SdfPath9GetStringB5cxx11Ev(ptr noundef nonnull align 4 dereferenceable(8) %8)
  %10 = tail call noundef ptr @_ZNKSt7__cxx1112basic_stringIcSt11char_traitsIcESaIcEE5c_strEv(ptr noundef nonnull align 8 dereferenceable(32) %9) #19
  %11 = getelementptr inbounds nuw i8, ptr %1, i64 184
  %12 = load i32, ptr %11, align 8
  %13 = icmp eq i32 %12, 1
  %14 = select i1 %13, ptr @.str.23, ptr @.str.24
  %15 = getelementptr inbounds nuw i8, ptr %1, i64 144
  %16 = tail call noundef ptr @_ZNKSt7__cxx1112basic_stringIcSt11char_traitsIcESaIcEE5c_strEv(ptr noundef nonnull align 8 dereferenceable(32) %15) #19
  %17 = getelementptr inbounds nuw i8, ptr %1, i64 176
  %18 = tail call noundef nonnull align 8 dereferenceable(32) ptr @_ZNK32pxrInternal_v0_24__pxrReserved__7SdfPath9GetStringB5cxx11Ev(ptr noundef nonnull align 4 dereferenceable(8) %17)
  %19 = tail call noundef ptr @_ZNKSt7__cxx1112basic_stringIcSt11char_traitsIcESaIcEE5c_strEv(ptr noundef nonnull align 8 dereferenceable(32) %18) #19
  %20 = getelementptr inbounds nuw i8, ptr %1, i64 188
  %21 = load i32, ptr %20, align 4
  %22 = icmp eq i32 %21, 1
  %23 = select i1 %22, ptr @.str.23, ptr @.str.24
  tail call void (ptr, ptr, ...) @_ZN32pxrInternal_v0_24__pxrReserved__14TfStringPrintfB5cxx11EPKcz(ptr dead_on_unwind writable sret(%"class.std::__cxx11::basic_string") align 8 %0, ptr noundef nonnull @.str.22, ptr noundef %5, ptr noundef %7, ptr noundef %10, ptr noundef nonnull %14, ptr noundef %16, ptr noundef %19, ptr noundef nonnull %23)
  ret void
}